target datalayout = "e-m:e-p270:32:32-p271:32:32-p272:64:64-i64:64-i128:128-f80:128-n8:16:32:64-S128"
target triple = "x86_64-pc-linux-gnu"

%struct.Qureg = type { i32, i32, i32, i64, i64, i32, i32, %struct.ComplexArray, %struct.ComplexArray, %struct.ComplexArray, ptr, ptr, ptr, ptr, ptr, ptr }
%struct.ComplexArray = type { ptr, ptr }

; Function Attrs: nounwind uwtable
define void @validateMultiQubitMatrixFitsInNode(ptr noundef byval(%struct.Qureg) align 8 %0, i32 noundef %1, ptr noundef %2) #0 {
  %4 = alloca i32, align 4
  %5 = alloca ptr, align 8
  store i32 %1, ptr %4, align 4, !tbaa !9
  store ptr %2, ptr %5, align 8, !tbaa !4
  %6 = getelementptr inbounds nuw %struct.Qureg, ptr %0, i32 0, i32 3
  %7 = load i64, ptr %6, align 8, !tbaa !46
  %8 = load i32, ptr %4, align 4, !tbaa !9
  %9 = zext i32 %8 to i64
  %10 = shl i64 1, %9
  %11 = icmp sge i64 %7, %10
  %12 = zext i1 %11 to i32
  %13 = load ptr, ptr %5, align 8, !tbaa !4
  call void @QuESTAssert(i32 noundef %12, i32 noundef 46, ptr noundef %13)
  ret void
}

; Function Attrs: nounwind uwtable
define void @QuESTAssert(i32 noundef %0, i32 noundef %1, ptr noundef %2) #0 {
  %4 = alloca i32, align 4
  %5 = alloca i32, align 4
  %6 = alloca ptr, align 8
  store i32 %0, ptr %4, align 4, !tbaa !9
  store i32 %1, ptr %5, align 4, !tbaa !9
  store ptr %2, ptr %6, align 8, !tbaa !4
  %7 = load i32, ptr %4, align 4, !tbaa !9
  %8 = icmp ne i32 %7, 0
  br i1 %8, label %15, label %9

9:                                                ; preds = %3
  %10 = load i32, ptr %5, align 4, !tbaa !9
  %11 = zext i32 %10 to i64
  %12 = getelementptr inbounds nuw [92 x ptr], ptr @errorMessages, i64 0, i64 %11
  %13 = load ptr, ptr %12, align 8, !tbaa !4
  %14 = load ptr, ptr %6, align 8, !tbaa !4
  call void @invalidQuESTInputError(ptr noundef %13, ptr noundef %14)
  br label %15

15:                                               ; preds = %9, %3
  ret void
}

; Function Attrs: nounwind uwtable
define void @validateOneQubitKrausMapDimensions(ptr noundef byval(%struct.Qureg) align 8 %0, ptr noundef %1, i32 noundef %2, ptr noundef %3) #0 {
  %5 = alloca ptr, align 8
  %6 = alloca i32, align 4
  %7 = alloca ptr, align 8
  %8 = alloca i32, align 4
  %9 = alloca i32, align 4
  %10 = alloca i32, align 4
  store ptr %1, ptr %5, align 8, !tbaa !24
  store i32 %2, ptr %6, align 4, !tbaa !9
  store ptr %3, ptr %7, align 8, !tbaa !4
  call void @llvm.lifetime.start.p0(i64 4, ptr %8) #7
  store i32 1, ptr %8, align 4, !tbaa !9
  call void @llvm.lifetime.start.p0(i64 4, ptr %9) #7
  %11 = load i32, ptr %8, align 4, !tbaa !9
  %12 = mul nsw i32 2, %11
  store i32 %12, ptr %9, align 4, !tbaa !9
  call void @llvm.lifetime.start.p0(i64 4, ptr %10) #7
  %13 = load i32, ptr %9, align 4, !tbaa !9
  %14 = load i32, ptr %9, align 4, !tbaa !9
  %15 = mul nsw i32 %13, %14
  store i32 %15, ptr %10, align 4, !tbaa !9
  %16 = load i32, ptr %6, align 4, !tbaa !9
  %17 = icmp sgt i32 %16, 0
  br i1 %17, label %18, label %22

18:                                               ; preds = %4
  %19 = load i32, ptr %6, align 4, !tbaa !9
  %20 = load i32, ptr %10, align 4, !tbaa !9
  %21 = icmp sle i32 %19, %20
  br label %22

22:                                               ; preds = %18, %4
  %23 = phi i1 [ false, %4 ], [ %21, %18 ]
  %24 = zext i1 %23 to i32
  %25 = load ptr, ptr %7, align 8, !tbaa !4
  call void @QuESTAssert(i32 noundef %24, i32 noundef 49, ptr noundef %25)
  %26 = load i32, ptr %9, align 4, !tbaa !9
  %27 = load ptr, ptr %7, align 8, !tbaa !4
  call void @validateMultiQubitMatrixFitsInNode(ptr noundef byval(%struct.Qureg) align 8 %0, i32 noundef %26, ptr noundef %27)
  call void @llvm.lifetime.end.p0(i64 4, ptr %10) #7
  call void @llvm.lifetime.end.p0(i64 4, ptr %9) #7
  call void @llvm.lifetime.end.p0(i64 4, ptr %8) #7
  ret void
}