; Function Attrs: nounwind uwtable
define void @validateOneQubitKrausMapDimensions(ptr noundef readonly byval(%struct.Qureg) align 8 captures(none) %0, ptr noundef readnone captures(none) %1, i32 noundef %2, ptr noundef %3) local_unnamed_addr #3 {
  %5 = add i32 %2, -5
  %6 = icmp ult i32 %5, -4
  br i1 %6, label %7, label %QuESTAssert.exit

7:                                                ; preds = %4
  tail call void @invalidQuESTInputError(ptr noundef nonnull @.str.51, ptr noundef %3)
  br label %QuESTAssert.exit

QuESTAssert.exit:                                 ; preds = %4, %7
  %.sroa.3.0..sroa_idx = getelementptr inbounds nuw i8, ptr %0, i64 16
  %.sroa.3.0.copyload = load i64, ptr %.sroa.3.0..sroa_idx, align 8
  %.not.i8 = icmp slt i64 %.sroa.3.0.copyload, 4
  br i1 %.not.i8, label %8, label %validateMultiQubitMatrixFitsInNode.exit

8:                                                ; preds = %QuESTAssert.exit
  tail call void @invalidQuESTInputError(ptr noundef nonnull @.str.48, ptr noundef %3)
  br label %validateMultiQubitMatrixFitsInNode.exit

validateMultiQubitMatrixFitsInNode.exit:          ; preds = %QuESTAssert.exit, %8
  ret void
}